target datalayout = "e-m:e-p270:32:32-p271:32:32-p272:64:64-i64:64-i128:128-f80:128-n8:16:32:64-S128"
target triple = "x86_64-pc-linux-gnu"

%struct.AVFormatContext = type { ptr, ptr, ptr, ptr, ptr, i32, i32, ptr, i32, ptr, i32, ptr, ptr, i64, i64, i64, i32, i32, i32, i64, i64, ptr, i32, i32, ptr, i32, i32, i32, i32, ptr, i64, i32, i32, %struct.AVIOInterruptCB, i32, i32, i32, i32, i64, i32, i32, i32, i32, i32, i32, i32, i32, i32, i32, i32, i32, i64, i32, i32, i32, i32, i32, ptr, ptr, ptr, ptr, i32, ptr, ptr, ptr, ptr, i32, ptr, ptr, i64, ptr, ptr, ptr, i64 }
%struct.AVIOInterruptCB = type { ptr, ptr }
%struct.MP3Context = type { ptr, %struct.ID3v2EncContext, i32, i32, i32, ptr, i32, i32, i32, i64, i32, i32, i32, i32, i32, i32, [400 x i64], i32, i32, i32, i32, i32, i32, %struct.PacketList }
%struct.ID3v2EncContext = type { i32, i64, i32 }
%struct.PacketList = type { ptr, ptr }
%struct.AVPacket = type { ptr, i64, i64, ptr, i32, i32, i32, ptr, i32, i64, i64, ptr, ptr, %struct.AVRational }
%struct.AVRational = type { i32, i32 }
%struct.AVStream = type { ptr, i32, i32, ptr, ptr, %struct.AVRational, i64, i64, i64, i32, i32, %struct.AVRational, ptr, %struct.AVRational, %struct.AVPacket, i32, %struct.AVRational, i32 }
%struct.FFFormatContext = type { %struct.AVFormatContext, i32, %struct.PacketList, i64, ptr, ptr, i32, ptr, i32 }

@.str.24 = private unnamed_addr constant [61 x i8] c"Not enough memory to buffer audio. Skipping picture streams\0A\00", align 1
@.str.25 = private unnamed_addr constant [51 x i8] c"Got more than one picture in stream %d, ignoring.\0A\00", align 1

; Function Attrs: alwaysinline nounwind uwtable
define internal ptr @ffformatcontext(ptr noundef %0) #4 {
  %2 = alloca ptr, align 8
  store ptr %0, ptr %2, align 8, !tbaa !4
  %3 = load ptr, ptr %2, align 8, !tbaa !4
  ret ptr %3
}

; Function Attrs: nounwind uwtable
define internal i32 @mp3_queue_flush(ptr noundef %0) #0 {
  %2 = alloca ptr, align 8
  %3 = alloca ptr, align 8
  %4 = alloca ptr, align 8
  %5 = alloca i32, align 4
  %6 = alloca i32, align 4
  store ptr %0, ptr %2, align 8, !tbaa !4
  call void @llvm.lifetime.start.p0(i64 8, ptr %3) #12
  %7 = load ptr, ptr %2, align 8, !tbaa !4
  %8 = getelementptr inbounds nuw %struct.AVFormatContext, ptr %7, i32 0, i32 3
  %9 = load ptr, ptr %8, align 8, !tbaa !9
  store ptr %9, ptr %3, align 8, !tbaa !26
  call void @llvm.lifetime.start.p0(i64 8, ptr %4) #12
  %10 = load ptr, ptr %2, align 8, !tbaa !4
  %11 = call ptr @ffformatcontext(ptr noundef %10)
  %12 = getelementptr inbounds nuw %struct.FFFormatContext, ptr %11, i32 0, i32 5
  %13 = load ptr, ptr %12, align 8, !tbaa !98
  store ptr %13, ptr %4, align 8, !tbaa !37
  call void @llvm.lifetime.start.p0(i64 4, ptr %5) #12
  store i32 0, ptr %5, align 4, !tbaa !34
  call void @llvm.lifetime.start.p0(i64 4, ptr %6) #12
  store i32 1, ptr %6, align 4, !tbaa !34
  %14 = load ptr, ptr %3, align 8, !tbaa !26
  %15 = getelementptr inbounds nuw %struct.MP3Context, ptr %14, i32 0, i32 1
  %16 = load ptr, ptr %2, align 8, !tbaa !4
  %17 = getelementptr inbounds nuw %struct.AVFormatContext, ptr %16, i32 0, i32 4
  %18 = load ptr, ptr %17, align 8, !tbaa !33
  %19 = load ptr, ptr %2, align 8, !tbaa !4
  %20 = getelementptr inbounds nuw %struct.AVFormatContext, ptr %19, i32 0, i32 66
  %21 = load i32, ptr %20, align 8, !tbaa !36
  call void @ff_id3v2_finish(ptr noundef %15, ptr noundef %18, i32 noundef %21)
  %22 = load ptr, ptr %2, align 8, !tbaa !4
  %23 = call i32 @mp3_write_xing(ptr noundef %22)
  br label %24

24:                                               ; preds = %43, %1
  %25 = load ptr, ptr %3, align 8, !tbaa !26
  %26 = getelementptr inbounds nuw %struct.MP3Context, ptr %25, i32 0, i32 23
  %27 = getelementptr inbounds nuw %struct.PacketList, ptr %26, i32 0, i32 0
  %28 = load ptr, ptr %27, align 8, !tbaa !100
  %29 = icmp ne ptr %28, null
  br i1 %29, label %30, label %45

30:                                               ; preds = %24
  %31 = load ptr, ptr %3, align 8, !tbaa !26
  %32 = getelementptr inbounds nuw %struct.MP3Context, ptr %31, i32 0, i32 23
  %33 = load ptr, ptr %4, align 8, !tbaa !37
  %34 = call i32 @avpriv_packet_list_get(ptr noundef %32, ptr noundef %33)
  %35 = load i32, ptr %6, align 4, !tbaa !34
  %36 = icmp ne i32 %35, 0
  br i1 %36, label %37, label %43

37:                                               ; preds = %30
  %38 = load ptr, ptr %2, align 8, !tbaa !4
  %39 = load ptr, ptr %4, align 8, !tbaa !37
  %40 = call i32 @mp3_write_audio_packet(ptr noundef %38, ptr noundef %39)
  store i32 %40, ptr %5, align 4, !tbaa !34
  %41 = icmp slt i32 %40, 0
  br i1 %41, label %42, label %43

42:                                               ; preds = %37
  store i32 0, ptr %6, align 4, !tbaa !34
  br label %43

43:                                               ; preds = %42, %37, %30
  %44 = load ptr, ptr %4, align 8, !tbaa !37
  call void @av_packet_unref(ptr noundef %44)
  br label %24, !llvm.loop !101

45:                                               ; preds = %24
  %46 = load i32, ptr %5, align 4, !tbaa !34
  call void @llvm.lifetime.end.p0(i64 4, ptr %6) #12
  call void @llvm.lifetime.end.p0(i64 4, ptr %5) #12
  call void @llvm.lifetime.end.p0(i64 8, ptr %4) #12
  call void @llvm.lifetime.end.p0(i64 8, ptr %3) #12
  ret i32 %46
}

; Function Attrs: nounwind uwtable
define internal i32 @mp3_write_packet(ptr noundef %0, ptr noundef %1) #0 {
  %3 = alloca i32, align 4
  %4 = alloca ptr, align 8
  %5 = alloca ptr, align 8
  %6 = alloca ptr, align 8
  %7 = alloca i32, align 4
  %8 = alloca i32, align 4
  %9 = alloca i32, align 4
  store ptr %0, ptr %4, align 8, !tbaa !4
  store ptr %1, ptr %5, align 8, !tbaa !37
  call void @llvm.lifetime.start.p0(i64 8, ptr %6) #12
  %10 = load ptr, ptr %4, align 8, !tbaa !4
  %11 = getelementptr inbounds nuw %struct.AVFormatContext, ptr %10, i32 0, i32 3
  %12 = load ptr, ptr %11, align 8, !tbaa !9
  store ptr %12, ptr %6, align 8, !tbaa !26
  %13 = load ptr, ptr %5, align 8, !tbaa !37
  %14 = getelementptr inbounds nuw %struct.AVPacket, ptr %13, i32 0, i32 5
  %15 = load i32, ptr %14, align 4, !tbaa !39
  %16 = load ptr, ptr %6, align 8, !tbaa !26
  %17 = getelementptr inbounds nuw %struct.MP3Context, ptr %16, i32 0, i32 21
  %18 = load i32, ptr %17, align 8, !tbaa !44
  %19 = icmp eq i32 %15, %18
  br i1 %19, label %20, label %50

20:                                               ; preds = %2
  %21 = load ptr, ptr %6, align 8, !tbaa !26
  %22 = getelementptr inbounds nuw %struct.MP3Context, ptr %21, i32 0, i32 22
  %23 = load i32, ptr %22, align 4, !tbaa !35
  %24 = icmp ne i32 %23, 0
  br i1 %24, label %25, label %45

25:                                               ; preds = %20
  call void @llvm.lifetime.start.p0(i64 4, ptr %7) #12
  %26 = load ptr, ptr %6, align 8, !tbaa !26
  %27 = getelementptr inbounds nuw %struct.MP3Context, ptr %26, i32 0, i32 23
  %28 = load ptr, ptr %5, align 8, !tbaa !37
  %29 = call i32 @avpriv_packet_list_put(ptr noundef %27, ptr noundef %28, ptr noundef null, i32 noundef 0)
  store i32 %29, ptr %7, align 4, !tbaa !34
  %30 = load i32, ptr %7, align 4, !tbaa !34
  %31 = icmp slt i32 %30, 0
  br i1 %31, label %32, label %41

32:                                               ; preds = %25
  %33 = load ptr, ptr %4, align 8, !tbaa !4
  call void (ptr, i32, ptr, ...) @av_log(ptr noundef %33, i32 noundef 24, ptr noundef @.str.24)
  %34 = load ptr, ptr %6, align 8, !tbaa !26
  %35 = getelementptr inbounds nuw %struct.MP3Context, ptr %34, i32 0, i32 22
  store i32 0, ptr %35, align 4, !tbaa !35
  %36 = load ptr, ptr %4, align 8, !tbaa !4
  %37 = call i32 @mp3_queue_flush(ptr noundef %36)
  %38 = load ptr, ptr %4, align 8, !tbaa !4
  %39 = load ptr, ptr %5, align 8, !tbaa !37
  %40 = call i32 @mp3_write_audio_packet(ptr noundef %38, ptr noundef %39)
  store i32 %40, ptr %3, align 4
  store i32 1, ptr %8, align 4
  br label %42

41:                                               ; preds = %25
  store i32 0, ptr %8, align 4
  br label %42

42:                                               ; preds = %41, %32
  call void @llvm.lifetime.end.p0(i64 4, ptr %7) #12
  %43 = load i32, ptr %8, align 4
  switch i32 %43, label %116 [
    i32 0, label %44
  ]

44:                                               ; preds = %42
  br label %49

45:                                               ; preds = %20
  %46 = load ptr, ptr %4, align 8, !tbaa !4
  %47 = load ptr, ptr %5, align 8, !tbaa !37
  %48 = call i32 @mp3_write_audio_packet(ptr noundef %46, ptr noundef %47)
  store i32 %48, ptr %3, align 4
  store i32 1, ptr %8, align 4
  br label %116

49:                                               ; preds = %44
  br label %115

50:                                               ; preds = %2
  call void @llvm.lifetime.start.p0(i64 4, ptr %9) #12
  %51 = load ptr, ptr %4, align 8, !tbaa !4
  %52 = getelementptr inbounds nuw %struct.AVFormatContext, ptr %51, i32 0, i32 7
  %53 = load ptr, ptr %52, align 8, !tbaa !45
  %54 = load ptr, ptr %5, align 8, !tbaa !37
  %55 = getelementptr inbounds nuw %struct.AVPacket, ptr %54, i32 0, i32 5
  %56 = load i32, ptr %55, align 4, !tbaa !39
  %57 = sext i32 %56 to i64
  %58 = getelementptr inbounds ptr, ptr %53, i64 %57
  %59 = load ptr, ptr %58, align 8, !tbaa !46
  %60 = getelementptr inbounds nuw %struct.AVStream, ptr %59, i32 0, i32 8
  %61 = load i64, ptr %60, align 8, !tbaa !48
  %62 = icmp eq i64 %61, 1
  br i1 %62, label %63, label %68

63:                                               ; preds = %50
  %64 = load ptr, ptr %4, align 8, !tbaa !4
  %65 = load ptr, ptr %5, align 8, !tbaa !37
  %66 = getelementptr inbounds nuw %struct.AVPacket, ptr %65, i32 0, i32 5
  %67 = load i32, ptr %66, align 4, !tbaa !39
  call void (ptr, i32, ptr, ...) @av_log(ptr noundef %64, i32 noundef 24, ptr noundef @.str.25, i32 noundef %67)
  br label %68

68:                                               ; preds = %63, %50
  %69 = load ptr, ptr %6, align 8, !tbaa !26
  %70 = getelementptr inbounds nuw %struct.MP3Context, ptr %69, i32 0, i32 22
  %71 = load i32, ptr %70, align 4, !tbaa !35
  %72 = icmp ne i32 %71, 0
  br i1 %72, label %73, label %86

73:                                               ; preds = %68
  %74 = load ptr, ptr %4, align 8, !tbaa !4
  %75 = getelementptr inbounds nuw %struct.AVFormatContext, ptr %74, i32 0, i32 7
  %76 = load ptr, ptr %75, align 8, !tbaa !45
  %77 = load ptr, ptr %5, align 8, !tbaa !37
  %78 = getelementptr inbounds nuw %struct.AVPacket, ptr %77, i32 0, i32 5
  %79 = load i32, ptr %78, align 4, !tbaa !39
  %80 = sext i32 %79 to i64
  %81 = getelementptr inbounds ptr, ptr %76, i64 %80
  %82 = load ptr, ptr %81, align 8, !tbaa !46
  %83 = getelementptr inbounds nuw %struct.AVStream, ptr %82, i32 0, i32 8
  %84 = load i64, ptr %83, align 8, !tbaa !48
  %85 = icmp sge i64 %84, 1
  br i1 %85, label %86, label %87

86:                                               ; preds = %73, %68
  store i32 0, ptr %3, align 4
  store i32 1, ptr %8, align 4
  br label %112

87:                                               ; preds = %73
  %88 = load ptr, ptr %4, align 8, !tbaa !4
  %89 = load ptr, ptr %6, align 8, !tbaa !26
  %90 = getelementptr inbounds nuw %struct.MP3Context, ptr %89, i32 0, i32 1
  %91 = load ptr, ptr %5, align 8, !tbaa !37
  %92 = call i32 @ff_id3v2_write_apic(ptr noundef %88, ptr noundef %90, ptr noundef %91)
  store i32 %92, ptr %9, align 4, !tbaa !34
  %93 = icmp slt i32 %92, 0
  br i1 %93, label %94, label %96

94:                                               ; preds = %87
  %95 = load i32, ptr %9, align 4, !tbaa !34
  store i32 %95, ptr %3, align 4
  store i32 1, ptr %8, align 4
  br label %112

96:                                               ; preds = %87
  %97 = load ptr, ptr %6, align 8, !tbaa !26
  %98 = getelementptr inbounds nuw %struct.MP3Context, ptr %97, i32 0, i32 22
  %99 = load i32, ptr %98, align 4, !tbaa !35
  %100 = add nsw i32 %99, -1
  store i32 %100, ptr %98, align 4, !tbaa !35
  %101 = load ptr, ptr %6, align 8, !tbaa !26
  %102 = getelementptr inbounds nuw %struct.MP3Context, ptr %101, i32 0, i32 22
  %103 = load i32, ptr %102, align 4, !tbaa !35
  %104 = icmp ne i32 %103, 0
  br i1 %104, label %111, label %105

105:                                              ; preds = %96
  %106 = load ptr, ptr %4, align 8, !tbaa !4
  %107 = call i32 @mp3_queue_flush(ptr noundef %106)
  store i32 %107, ptr %9, align 4, !tbaa !34
  %108 = icmp slt i32 %107, 0
  br i1 %108, label %109, label %111

109:                                              ; preds = %105
  %110 = load i32, ptr %9, align 4, !tbaa !34
  store i32 %110, ptr %3, align 4
  store i32 1, ptr %8, align 4
  br label %112

111:                                              ; preds = %105, %96
  store i32 0, ptr %8, align 4
  br label %112

112:                                              ; preds = %111, %109, %94, %86
  call void @llvm.lifetime.end.p0(i64 4, ptr %9) #12
  %113 = load i32, ptr %8, align 4
  switch i32 %113, label %116 [
    i32 0, label %114
  ]

114:                                              ; preds = %112
  br label %115

115:                                              ; preds = %114, %49
  store i32 0, ptr %3, align 4
  store i32 1, ptr %8, align 4
  br label %116

116:                                              ; preds = %115, %112, %45, %42
  call void @llvm.lifetime.end.p0(i64 8, ptr %6) #12
  %117 = load i32, ptr %3, align 4
  ret i32 %117
}