; Function Attrs: nounwind uwtable
define internal i32 @mp3_write_packet(ptr noundef %0, ptr noundef %1) #0 {
  %3 = getelementptr inbounds nuw i8, ptr %0, i64 24
  %4 = load ptr, ptr %3, align 8, !tbaa !4
  %5 = getelementptr inbounds nuw i8, ptr %1, i64 36
  %6 = load i32, ptr %5, align 4, !tbaa !32
  %7 = getelementptr inbounds nuw i8, ptr %4, i64 3320
  %8 = load i32, ptr %7, align 8, !tbaa !37
  %9 = icmp eq i32 %6, %8
  br i1 %9, label %10, label %39

10:                                               ; preds = %2
  %11 = getelementptr inbounds nuw i8, ptr %4, i64 3324
  %12 = load i32, ptr %11, align 4, !tbaa !30
  %.not38 = icmp eq i32 %12, 0
  br i1 %.not38, label %37, label %13

13:                                               ; preds = %10
  %14 = getelementptr inbounds nuw i8, ptr %4, i64 3328
  %15 = tail call i32 @avpriv_packet_list_put(ptr noundef nonnull %14, ptr noundef nonnull %1, ptr noundef null, i32 noundef 0) #12
  %16 = icmp sgt i32 %15, -1
  br i1 %16, label %.thread, label %17

17:                                               ; preds = %13
  tail call void (ptr, i32, ptr, ...) @av_log(ptr noundef nonnull %0, i32 noundef 24, ptr noundef nonnull @.str.24) #12
  store i32 0, ptr %11, align 4, !tbaa !30
  %18 = load ptr, ptr %3, align 8, !tbaa !4
  %19 = getelementptr inbounds nuw i8, ptr %0, i64 512
  %20 = load ptr, ptr %19, align 8, !tbaa !38
  %21 = getelementptr inbounds nuw i8, ptr %18, i64 8
  %22 = getelementptr inbounds nuw i8, ptr %0, i64 32
  %23 = load ptr, ptr %22, align 8, !tbaa !29
  %24 = getelementptr inbounds nuw i8, ptr %0, i64 408
  %25 = load i32, ptr %24, align 8, !tbaa !31
  tail call void @ff_id3v2_finish(ptr noundef nonnull %21, ptr noundef %23, i32 noundef %25) #12
  tail call fastcc void @mp3_write_xing(ptr noundef nonnull %0)
  %26 = getelementptr inbounds nuw i8, ptr %18, i64 3328
  %27 = load ptr, ptr %26, align 8, !tbaa !41
  %.not18.i = icmp eq ptr %27, null
  br i1 %.not18.i, label %.thread51, label %.lr.ph.i

.thread51:                                        ; preds = %17
  %28 = tail call fastcc i32 @mp3_write_audio_packet(ptr noundef nonnull %0, ptr noundef nonnull %1)
  br label %.thread53

.lr.ph.i:                                         ; preds = %17, %33
  %.020.i = phi i32 [ %.1.i, %33 ], [ 1, %17 ]
  %29 = tail call i32 @avpriv_packet_list_get(ptr noundef nonnull %26, ptr noundef %20) #12
  %.not17.i = icmp eq i32 %.020.i, 0
  br i1 %.not17.i, label %33, label %30

30:                                               ; preds = %.lr.ph.i
  %31 = tail call fastcc i32 @mp3_write_audio_packet(ptr noundef nonnull %0, ptr noundef %20)
  %32 = icmp sgt i32 %31, -1
  %spec.select.i = zext i1 %32 to i32
  br label %33

33:                                               ; preds = %30, %.lr.ph.i
  %.1.i = phi i32 [ 0, %.lr.ph.i ], [ %spec.select.i, %30 ]
  tail call void @av_packet_unref(ptr noundef %20) #12
  %34 = load ptr, ptr %26, align 8, !tbaa !41
  %.not.i = icmp eq ptr %34, null
  br i1 %.not.i, label %35, label %.lr.ph.i, !llvm.loop !42

35:                                               ; preds = %33
  %36 = tail call fastcc i32 @mp3_write_audio_packet(ptr noundef nonnull %0, ptr noundef nonnull %1)
  br label %.thread53

37:                                               ; preds = %10
  %38 = tail call fastcc i32 @mp3_write_audio_packet(ptr noundef nonnull %0, ptr noundef nonnull %1)
  br label %.thread53

39:                                               ; preds = %2
  %40 = getelementptr inbounds nuw i8, ptr %0, i64 48
  %41 = load ptr, ptr %40, align 8, !tbaa !44
  %42 = sext i32 %6 to i64
  %43 = getelementptr inbounds ptr, ptr %41, i64 %42
  %44 = load ptr, ptr %43, align 8, !tbaa !45
  %45 = getelementptr inbounds nuw i8, ptr %44, i64 56
  %46 = load i64, ptr %45, align 8, !tbaa !47
  %47 = icmp eq i64 %46, 1
  br i1 %47, label %48, label %49

48:                                               ; preds = %39
  tail call void (ptr, i32, ptr, ...) @av_log(ptr noundef nonnull %0, i32 noundef 24, ptr noundef nonnull @.str.25, i32 noundef %6) #12
  br label %49

49:                                               ; preds = %48, %39
  %50 = getelementptr inbounds nuw i8, ptr %4, i64 3324
  %51 = load i32, ptr %50, align 4, !tbaa !30
  %.not = icmp eq i32 %51, 0
  br i1 %.not, label %.thread53, label %52

52:                                               ; preds = %49
  %53 = load ptr, ptr %40, align 8, !tbaa !44
  %54 = load i32, ptr %5, align 4, !tbaa !32
  %55 = sext i32 %54 to i64
  %56 = getelementptr inbounds ptr, ptr %53, i64 %55
  %57 = load ptr, ptr %56, align 8, !tbaa !45
  %58 = getelementptr inbounds nuw i8, ptr %57, i64 56
  %59 = load i64, ptr %58, align 8, !tbaa !47
  %60 = icmp sgt i64 %59, 0
  br i1 %60, label %.thread53, label %61

61:                                               ; preds = %52
  %62 = getelementptr inbounds nuw i8, ptr %4, i64 8
  %63 = tail call i32 @ff_id3v2_write_apic(ptr noundef nonnull %0, ptr noundef nonnull %62, ptr noundef nonnull %1) #12
  %64 = icmp slt i32 %63, 0
  br i1 %64, label %.thread53, label %65

65:                                               ; preds = %61
  %66 = load i32, ptr %50, align 4, !tbaa !30
  %67 = add nsw i32 %66, -1
  store i32 %67, ptr %50, align 4, !tbaa !30
  %.not37 = icmp eq i32 %67, 0
  br i1 %.not37, label %68, label %.thread

68:                                               ; preds = %65
  %69 = load ptr, ptr %3, align 8, !tbaa !4
  %70 = getelementptr inbounds nuw i8, ptr %0, i64 512
  %71 = load ptr, ptr %70, align 8, !tbaa !38
  %72 = getelementptr inbounds nuw i8, ptr %69, i64 8
  %73 = getelementptr inbounds nuw i8, ptr %0, i64 32
  %74 = load ptr, ptr %73, align 8, !tbaa !29
  %75 = getelementptr inbounds nuw i8, ptr %0, i64 408
  %76 = load i32, ptr %75, align 8, !tbaa !31
  tail call void @ff_id3v2_finish(ptr noundef nonnull %72, ptr noundef %74, i32 noundef %76) #12
  tail call fastcc void @mp3_write_xing(ptr noundef nonnull %0)
  %77 = getelementptr inbounds nuw i8, ptr %69, i64 3328
  %78 = load ptr, ptr %77, align 8, !tbaa !41
  %.not18.i39 = icmp eq ptr %78, null
  br i1 %.not18.i39, label %.thread, label %.lr.ph.i40

.lr.ph.i40:                                       ; preds = %68, %83
  %.020.i41 = phi i32 [ %.1.i46, %83 ], [ 1, %68 ]
  %.01319.i42 = phi i32 [ %.114.i45, %83 ], [ 0, %68 ]
  %79 = tail call i32 @avpriv_packet_list_get(ptr noundef nonnull %77, ptr noundef %71) #12
  %.not17.i43 = icmp eq i32 %.020.i41, 0
  br i1 %.not17.i43, label %83, label %80

80:                                               ; preds = %.lr.ph.i40
  %81 = tail call fastcc i32 @mp3_write_audio_packet(ptr noundef nonnull %0, ptr noundef %71)
  %82 = icmp sgt i32 %81, -1
  %spec.select.i44 = zext i1 %82 to i32
  br label %83

83:                                               ; preds = %80, %.lr.ph.i40
  %.114.i45 = phi i32 [ %.01319.i42, %.lr.ph.i40 ], [ %81, %80 ]
  %.1.i46 = phi i32 [ 0, %.lr.ph.i40 ], [ %spec.select.i44, %80 ]
  tail call void @av_packet_unref(ptr noundef %71) #12
  %84 = load ptr, ptr %77, align 8, !tbaa !41
  %.not.i47 = icmp eq ptr %84, null
  br i1 %.not.i47, label %mp3_queue_flush.exit49, label %.lr.ph.i40, !llvm.loop !42

mp3_queue_flush.exit49:                           ; preds = %83
  %85 = icmp slt i32 %.114.i45, 0
  br i1 %85, label %.thread53, label %.thread

.thread:                                          ; preds = %68, %13, %mp3_queue_flush.exit49, %65
  br label %.thread53

.thread53:                                        ; preds = %35, %mp3_queue_flush.exit49, %61, %49, %52, %.thread51, %.thread, %37
  %.133 = phi i32 [ 0, %.thread ], [ %36, %35 ], [ %38, %37 ], [ %28, %.thread51 ], [ %.114.i45, %mp3_queue_flush.exit49 ], [ %63, %61 ], [ 0, %49 ], [ 0, %52 ]
  ret i32 %.133
}